target datalayout = "e-m:e-p270:32:32-p271:32:32-p272:64:64-i64:64-i128:128-f80:128-n8:16:32:64-S128"
target triple = "x86_64-pc-linux-gnu"

%"struct.pbrt::BVHPrimitive" = type { i64, %"class.pbrt::Bounds3" }
%"class.pbrt::Bounds3" = type { %"class.pbrt::Point3", %"class.pbrt::Point3" }
%"class.pbrt::Point3" = type { %"class.pbrt::Tuple3" }
%"class.pbrt::Tuple3" = type { float, float, float }
%"class.pstd::span" = type { ptr, i64 }
%class.anon.39 = type { ptr, ptr, ptr, ptr, ptr, ptr, ptr, ptr }

; Function Attrs: mustprogress nounwind uwtable
define linkonce_odr dso_local void @_ZN4pstd4spanIN4pbrt12BVHPrimitiveEEC2EPS2_m(ptr noundef nonnull align 8 dereferenceable(16) %0, ptr noundef %1, i64 noundef %2) unnamed_addr #5 comdat align 2 {
  %4 = alloca ptr, align 8
  %5 = alloca ptr, align 8
  %6 = alloca i64, align 8
  store ptr %0, ptr %4, align 8, !tbaa !102
  store ptr %1, ptr %5, align 8, !tbaa !55
  store i64 %2, ptr %6, align 8, !tbaa !32
  %7 = load ptr, ptr %4, align 8
  %8 = getelementptr inbounds nuw %"class.pstd::span", ptr %7, i32 0, i32 0
  %9 = load ptr, ptr %5, align 8, !tbaa !55
  store ptr %9, ptr %8, align 8, !tbaa !154
  %10 = getelementptr inbounds nuw %"class.pstd::span", ptr %7, i32 0, i32 1
  %11 = load i64, ptr %6, align 8, !tbaa !32
  store i64 %11, ptr %10, align 8, !tbaa !156
  ret void
}

; Function Attrs: mustprogress nounwind uwtable
define linkonce_odr dso_local noundef i64 @_ZNK4pstd4spanIN4pbrt12BVHPrimitiveEE4sizeEv(ptr noundef nonnull align 8 dereferenceable(16) %0) #5 comdat align 2 {
  %2 = alloca ptr, align 8
  store ptr %0, ptr %2, align 8, !tbaa !102
  %3 = load ptr, ptr %2, align 8
  %4 = getelementptr inbounds nuw %"class.pstd::span", ptr %3, i32 0, i32 1
  %5 = load i64, ptr %4, align 8, !tbaa !156
  ret i64 %5
}

; Function Attrs: mustprogress uwtable
define linkonce_odr dso_local { ptr, i64 } @_ZN4pstd4spanIN4pbrt12BVHPrimitiveEE7subspanEmm(ptr noundef nonnull align 8 dereferenceable(16) %0, i64 noundef %1, i64 noundef %2) #1 comdat align 2 {
  %4 = alloca %"class.pstd::span", align 8
  %5 = alloca ptr, align 8
  %6 = alloca i64, align 8
  %7 = alloca i64, align 8
  %8 = alloca i64, align 8
  store ptr %0, ptr %5, align 8, !tbaa !102
  store i64 %1, ptr %6, align 8, !tbaa !32
  store i64 %2, ptr %7, align 8, !tbaa !32
  %9 = load ptr, ptr %5, align 8
  call void @llvm.lifetime.start.p0(i64 8, ptr %8) #21
  %10 = load i64, ptr %7, align 8, !tbaa !32
  %11 = call noundef i64 @_ZNK4pstd4spanIN4pbrt12BVHPrimitiveEE4sizeEv(ptr noundef nonnull align 8 dereferenceable(16) %9)
  %12 = load i64, ptr %6, align 8, !tbaa !32
  %13 = sub i64 %11, %12
  %14 = icmp ult i64 %10, %13
  br i1 %14, label %15, label %17

15:                                               ; preds = %3
  %16 = load i64, ptr %7, align 8, !tbaa !32
  br label %21

17:                                               ; preds = %3
  %18 = call noundef i64 @_ZNK4pstd4spanIN4pbrt12BVHPrimitiveEE4sizeEv(ptr noundef nonnull align 8 dereferenceable(16) %9)
  %19 = load i64, ptr %6, align 8, !tbaa !32
  %20 = sub i64 %18, %19
  br label %21

21:                                               ; preds = %17, %15
  %22 = phi i64 [ %16, %15 ], [ %20, %17 ]
  store i64 %22, ptr %8, align 8, !tbaa !32
  %23 = getelementptr inbounds nuw %"class.pstd::span", ptr %9, i32 0, i32 0
  %24 = load ptr, ptr %23, align 8, !tbaa !154
  %25 = load i64, ptr %6, align 8, !tbaa !32
  %26 = getelementptr inbounds nuw %"struct.pbrt::BVHPrimitive", ptr %24, i64 %25
  %27 = load i64, ptr %8, align 8, !tbaa !32
  call void @_ZN4pstd4spanIN4pbrt12BVHPrimitiveEEC2EPS2_m(ptr noundef nonnull align 8 dereferenceable(16) %4, ptr noundef %26, i64 noundef %27)
  call void @llvm.lifetime.end.p0(i64 8, ptr %8) #21
  %28 = load { ptr, i64 }, ptr %4, align 8
  ret { ptr, i64 } %28
}

; Function Attrs: inlinehint mustprogress uwtable
define internal void @"_ZZN4pbrt12BVHAggregate14buildRecursiveERNS_11ThreadLocalIN4pstd3pmr21polymorphic_allocatorISt4byteEEEENS2_4spanINS_12BVHPrimitiveEEEPSt6atomicIiESE_RSt6vectorINS_9PrimitiveESaISG_EEENK3$_0clEi"(ptr noundef nonnull align 8 dereferenceable(64) %0, i32 noundef %1) #11 align 2 {
  %3 = alloca ptr, align 8
  %4 = alloca i32, align 4
  %5 = alloca %"class.pstd::span", align 8
  %6 = alloca %"class.pstd::span", align 8
  store ptr %0, ptr %3, align 8, !tbaa !13
  store i32 %1, ptr %4, align 4, !tbaa !18
  %7 = load ptr, ptr %3, align 8
  %8 = getelementptr inbounds nuw %class.anon.39, ptr %7, i32 0, i32 1
  %9 = load ptr, ptr %8, align 8, !tbaa !124
  %10 = load i32, ptr %4, align 4, !tbaa !18
  %11 = icmp eq i32 %10, 0
  br i1 %11, label %12, label %42

12:                                               ; preds = %2
  %13 = getelementptr inbounds nuw %class.anon.39, ptr %7, i32 0, i32 2
  %14 = load ptr, ptr %13, align 8, !tbaa !686
  %15 = getelementptr inbounds nuw %class.anon.39, ptr %7, i32 0, i32 3
  %16 = load ptr, ptr %15, align 8, !tbaa !687
  %17 = getelementptr inbounds nuw %class.anon.39, ptr %7, i32 0, i32 4
  %18 = load ptr, ptr %17, align 8, !tbaa !688
  %19 = load i32, ptr %18, align 4, !tbaa !18
  %20 = sext i32 %19 to i64
  %21 = call { ptr, i64 } @_ZN4pstd4spanIN4pbrt12BVHPrimitiveEE7subspanEmm(ptr noundef nonnull align 8 dereferenceable(16) %16, i64 noundef 0, i64 noundef %20)
  %22 = getelementptr inbounds nuw { ptr, i64 }, ptr %5, i32 0, i32 0
  %23 = extractvalue { ptr, i64 } %21, 0
  store ptr %23, ptr %22, align 8
  %24 = getelementptr inbounds nuw { ptr, i64 }, ptr %5, i32 0, i32 1
  %25 = extractvalue { ptr, i64 } %21, 1
  store i64 %25, ptr %24, align 8
  %26 = getelementptr inbounds nuw %class.anon.39, ptr %7, i32 0, i32 5
  %27 = load ptr, ptr %26, align 8, !tbaa !689
  %28 = load ptr, ptr %27, align 8, !tbaa !82
  %29 = getelementptr inbounds nuw %class.anon.39, ptr %7, i32 0, i32 6
  %30 = load ptr, ptr %29, align 8, !tbaa !690
  %31 = load ptr, ptr %30, align 8, !tbaa !82
  %32 = getelementptr inbounds nuw %class.anon.39, ptr %7, i32 0, i32 7
  %33 = load ptr, ptr %32, align 8, !tbaa !691
  %34 = getelementptr inbounds nuw { ptr, i64 }, ptr %5, i32 0, i32 0
  %35 = load ptr, ptr %34, align 8
  %36 = getelementptr inbounds nuw { ptr, i64 }, ptr %5, i32 0, i32 1
  %37 = load i64, ptr %36, align 8
  %38 = call noundef ptr @_ZN4pbrt12BVHAggregate14buildRecursiveERNS_11ThreadLocalIN4pstd3pmr21polymorphic_allocatorISt4byteEEEENS2_4spanINS_12BVHPrimitiveEEEPSt6atomicIiESE_RSt6vectorINS_9PrimitiveESaISG_EE(ptr noundef nonnull align 8 dereferenceable(48) %9, ptr noundef nonnull align 8 dereferenceable(112) %14, ptr %35, i64 %37, ptr noundef %28, ptr noundef %31, ptr noundef nonnull align 8 dereferenceable(24) %33)
  %39 = getelementptr inbounds nuw %class.anon.39, ptr %7, i32 0, i32 0
  %40 = load ptr, ptr %39, align 8, !tbaa !692
  %41 = getelementptr inbounds [2 x ptr], ptr %40, i64 0, i64 0
  store ptr %38, ptr %41, align 8, !tbaa !41
  br label %72

42:                                               ; preds = %2
  %43 = getelementptr inbounds nuw %class.anon.39, ptr %7, i32 0, i32 2
  %44 = load ptr, ptr %43, align 8, !tbaa !686
  %45 = getelementptr inbounds nuw %class.anon.39, ptr %7, i32 0, i32 3
  %46 = load ptr, ptr %45, align 8, !tbaa !687
  %47 = getelementptr inbounds nuw %class.anon.39, ptr %7, i32 0, i32 4
  %48 = load ptr, ptr %47, align 8, !tbaa !688
  %49 = load i32, ptr %48, align 4, !tbaa !18
  %50 = sext i32 %49 to i64
  %51 = call { ptr, i64 } @_ZN4pstd4spanIN4pbrt12BVHPrimitiveEE7subspanEmm(ptr noundef nonnull align 8 dereferenceable(16) %46, i64 noundef %50, i64 noundef -1)
  %52 = getelementptr inbounds nuw { ptr, i64 }, ptr %6, i32 0, i32 0
  %53 = extractvalue { ptr, i64 } %51, 0
  store ptr %53, ptr %52, align 8
  %54 = getelementptr inbounds nuw { ptr, i64 }, ptr %6, i32 0, i32 1
  %55 = extractvalue { ptr, i64 } %51, 1
  store i64 %55, ptr %54, align 8
  %56 = getelementptr inbounds nuw %class.anon.39, ptr %7, i32 0, i32 5
  %57 = load ptr, ptr %56, align 8, !tbaa !689
  %58 = load ptr, ptr %57, align 8, !tbaa !82
  %59 = getelementptr inbounds nuw %class.anon.39, ptr %7, i32 0, i32 6
  %60 = load ptr, ptr %59, align 8, !tbaa !690
  %61 = load ptr, ptr %60, align 8, !tbaa !82
  %62 = getelementptr inbounds nuw %class.anon.39, ptr %7, i32 0, i32 7
  %63 = load ptr, ptr %62, align 8, !tbaa !691
  %64 = getelementptr inbounds nuw { ptr, i64 }, ptr %6, i32 0, i32 0
  %65 = load ptr, ptr %64, align 8
  %66 = getelementptr inbounds nuw { ptr, i64 }, ptr %6, i32 0, i32 1
  %67 = load i64, ptr %66, align 8
  %68 = call noundef ptr @_ZN4pbrt12BVHAggregate14buildRecursiveERNS_11ThreadLocalIN4pstd3pmr21polymorphic_allocatorISt4byteEEEENS2_4spanINS_12BVHPrimitiveEEEPSt6atomicIiESE_RSt6vectorINS_9PrimitiveESaISG_EE(ptr noundef nonnull align 8 dereferenceable(48) %9, ptr noundef nonnull align 8 dereferenceable(112) %44, ptr %65, i64 %67, ptr noundef %58, ptr noundef %61, ptr noundef nonnull align 8 dereferenceable(24) %63)
  %69 = getelementptr inbounds nuw %class.anon.39, ptr %7, i32 0, i32 0
  %70 = load ptr, ptr %69, align 8, !tbaa !692
  %71 = getelementptr inbounds [2 x ptr], ptr %70, i64 0, i64 1
  store ptr %68, ptr %71, align 8, !tbaa !41
  br label %72

72:                                               ; preds = %42, %12
  ret void
}

; Function Attrs: mustprogress nounwind uwtable
define linkonce_odr dso_local noundef ptr @_ZNKSt9_Any_data9_M_accessEv(ptr noundef nonnull align 8 dereferenceable(16) %0) #5 comdat align 2 {
  %2 = alloca ptr, align 8
  store ptr %0, ptr %2, align 8, !tbaa !484
  %3 = load ptr, ptr %2, align 8
  %4 = getelementptr inbounds [16 x i8], ptr %3, i64 0, i64 0
  ret ptr %4
}

; Function Attrs: mustprogress uwtable
define internal void @"_ZSt13__invoke_implIvRZN4pbrt12BVHAggregate14buildRecursiveERNS0_11ThreadLocalIN4pstd3pmr21polymorphic_allocatorISt4byteEEEENS3_4spanINS0_12BVHPrimitiveEEEPSt6atomicIiESF_RSt6vectorINS0_9PrimitiveESaISH_EEE3$_0JlEET_St14__invoke_otherOT0_DpOT1_"(ptr noundef nonnull align 8 dereferenceable(64) %0, ptr noundef nonnull align 8 dereferenceable(8) %1) #1 {
  %3 = alloca ptr, align 8
  %4 = alloca ptr, align 8
  store ptr %0, ptr %3, align 8, !tbaa !13
  store ptr %1, ptr %4, align 8, !tbaa !130
  %5 = load ptr, ptr %3, align 8, !tbaa !13
  %6 = load ptr, ptr %4, align 8, !tbaa !130
  %7 = load i64, ptr %6, align 8, !tbaa !32
  %8 = trunc i64 %7 to i32
  call void @"_ZZN4pbrt12BVHAggregate14buildRecursiveERNS_11ThreadLocalIN4pstd3pmr21polymorphic_allocatorISt4byteEEEENS2_4spanINS_12BVHPrimitiveEEEPSt6atomicIiESE_RSt6vectorINS_9PrimitiveESaISG_EEENK3$_0clEi"(ptr noundef nonnull align 8 dereferenceable(64) %5, i32 noundef %8)
  ret void
}

; Function Attrs: mustprogress nounwind uwtable
define internal noundef nonnull align 8 dereferenceable(8) ptr @"_ZNKSt9_Any_data9_M_accessIPZN4pbrt12BVHAggregate14buildRecursiveERNS1_11ThreadLocalIN4pstd3pmr21polymorphic_allocatorISt4byteEEEENS4_4spanINS1_12BVHPrimitiveEEEPSt6atomicIiESG_RSt6vectorINS1_9PrimitiveESaISI_EEE3$_0EERKT_v"(ptr noundef nonnull align 8 dereferenceable(16) %0) #5 align 2 {
  %2 = alloca ptr, align 8
  store ptr %0, ptr %2, align 8, !tbaa !484
  %3 = load ptr, ptr %2, align 8
  %4 = call noundef ptr @_ZNKSt9_Any_data9_M_accessEv(ptr noundef nonnull align 8 dereferenceable(16) %3) #21
  ret ptr %4
}

; Function Attrs: mustprogress uwtable
define internal void @"_ZSt10__invoke_rIvRZN4pbrt12BVHAggregate14buildRecursiveERNS0_11ThreadLocalIN4pstd3pmr21polymorphic_allocatorISt4byteEEEENS3_4spanINS0_12BVHPrimitiveEEEPSt6atomicIiESF_RSt6vectorINS0_9PrimitiveESaISH_EEE3$_0JlEENSt9enable_ifIX16is_invocable_r_vIT_T0_DpT1_EESO_E4typeEOSP_DpOSQ_"(ptr noundef nonnull align 8 dereferenceable(64) %0, ptr noundef nonnull align 8 dereferenceable(8) %1) #1 {
  %3 = alloca ptr, align 8
  %4 = alloca ptr, align 8
  store ptr %0, ptr %3, align 8, !tbaa !13
  store ptr %1, ptr %4, align 8, !tbaa !130
  %5 = load ptr, ptr %3, align 8, !tbaa !13
  %6 = load ptr, ptr %4, align 8, !tbaa !130
  call void @"_ZSt13__invoke_implIvRZN4pbrt12BVHAggregate14buildRecursiveERNS0_11ThreadLocalIN4pstd3pmr21polymorphic_allocatorISt4byteEEEENS3_4spanINS0_12BVHPrimitiveEEEPSt6atomicIiESF_RSt6vectorINS0_9PrimitiveESaISH_EEE3$_0JlEET_St14__invoke_otherOT0_DpOT1_"(ptr noundef nonnull align 8 dereferenceable(64) %5, ptr noundef nonnull align 8 dereferenceable(8) %6)
  ret void
}

; Function Attrs: mustprogress nounwind uwtable
define internal noundef ptr @"_ZNSt14_Function_base13_Base_managerIZN4pbrt12BVHAggregate14buildRecursiveERNS1_11ThreadLocalIN4pstd3pmr21polymorphic_allocatorISt4byteEEEENS4_4spanINS1_12BVHPrimitiveEEEPSt6atomicIiESG_RSt6vectorINS1_9PrimitiveESaISI_EEE3$_0E14_M_get_pointerERKSt9_Any_data"(ptr noundef nonnull align 8 dereferenceable(16) %0) #5 align 2 {
  %2 = alloca ptr, align 8
  store ptr %0, ptr %2, align 8, !tbaa !484
  %3 = load ptr, ptr %2, align 8, !tbaa !484
  %4 = call noundef nonnull align 8 dereferenceable(8) ptr @"_ZNKSt9_Any_data9_M_accessIPZN4pbrt12BVHAggregate14buildRecursiveERNS1_11ThreadLocalIN4pstd3pmr21polymorphic_allocatorISt4byteEEEENS4_4spanINS1_12BVHPrimitiveEEEPSt6atomicIiESG_RSt6vectorINS1_9PrimitiveESaISI_EEE3$_0EERKT_v"(ptr noundef nonnull align 8 dereferenceable(16) %3) #21
  %5 = load ptr, ptr %4, align 8, !tbaa !13
  ret ptr %5
}

; Function Attrs: mustprogress uwtable
define internal void @"_ZNSt17_Function_handlerIFvlEZN4pbrt12BVHAggregate14buildRecursiveERNS1_11ThreadLocalIN4pstd3pmr21polymorphic_allocatorISt4byteEEEENS4_4spanINS1_12BVHPrimitiveEEEPSt6atomicIiESG_RSt6vectorINS1_9PrimitiveESaISI_EEE3$_0E9_M_invokeERKSt9_Any_dataOl"(ptr noundef nonnull align 8 dereferenceable(16) %0, ptr noundef nonnull align 8 dereferenceable(8) %1) #1 align 2 {
  %3 = alloca ptr, align 8
  %4 = alloca ptr, align 8
  store ptr %0, ptr %3, align 8, !tbaa !484
  store ptr %1, ptr %4, align 8, !tbaa !130
  %5 = load ptr, ptr %3, align 8, !tbaa !484
  %6 = call noundef ptr @"_ZNSt14_Function_base13_Base_managerIZN4pbrt12BVHAggregate14buildRecursiveERNS1_11ThreadLocalIN4pstd3pmr21polymorphic_allocatorISt4byteEEEENS4_4spanINS1_12BVHPrimitiveEEEPSt6atomicIiESG_RSt6vectorINS1_9PrimitiveESaISI_EEE3$_0E14_M_get_pointerERKSt9_Any_data"(ptr noundef nonnull align 8 dereferenceable(16) %5) #21
  %7 = load ptr, ptr %4, align 8, !tbaa !130
  call void @"_ZSt10__invoke_rIvRZN4pbrt12BVHAggregate14buildRecursiveERNS0_11ThreadLocalIN4pstd3pmr21polymorphic_allocatorISt4byteEEEENS3_4spanINS0_12BVHPrimitiveEEEPSt6atomicIiESF_RSt6vectorINS0_9PrimitiveESaISH_EEE3$_0JlEENSt9enable_ifIX16is_invocable_r_vIT_T0_DpT1_EESO_E4typeEOSP_DpOSQ_"(ptr noundef nonnull align 8 dereferenceable(64) %6, ptr noundef nonnull align 8 dereferenceable(8) %7)
  ret void
}