; Function Attrs: mustprogress uwtable
define internal void @"_ZNSt17_Function_handlerIFvlEZN4pbrt12BVHAggregate14buildRecursiveERNS1_11ThreadLocalIN4pstd3pmr21polymorphic_allocatorISt4byteEEEENS4_4spanINS1_12BVHPrimitiveEEEPSt6atomicIiESG_RSt6vectorINS1_9PrimitiveESaISI_EEE3$_0E9_M_invokeERKSt9_Any_dataOl"(ptr noundef nonnull readonly align 8 captures(none) dereferenceable(16) %0, ptr noundef nonnull readonly align 8 captures(none) dereferenceable(8) %1) #2 align 2 {
  %.val = load ptr, ptr %0, align 8, !tbaa !107
  %.val2 = load i64, ptr %1, align 8, !tbaa !49
  %3 = getelementptr inbounds nuw i8, ptr %.val, i64 8
  %4 = load ptr, ptr %3, align 8, !tbaa !791
  %5 = and i64 %.val2, 4294967295
  %6 = icmp eq i64 %5, 0
  %7 = getelementptr inbounds nuw i8, ptr %.val, i64 16
  %8 = load ptr, ptr %7, align 8, !tbaa !793
  %9 = getelementptr inbounds nuw i8, ptr %.val, i64 24
  %10 = load ptr, ptr %9, align 8, !tbaa !794
  %11 = getelementptr inbounds nuw i8, ptr %.val, i64 32
  %12 = load ptr, ptr %11, align 8, !tbaa !795
  %13 = load i32, ptr %12, align 4, !tbaa !48
  %14 = sext i32 %13 to i64
  %15 = getelementptr inbounds nuw i8, ptr %10, i64 8
  %16 = load i64, ptr %15, align 8, !tbaa !143
  %17 = load ptr, ptr %10, align 8, !tbaa !141
  br i1 %6, label %18, label %29

18:                                               ; preds = %2
  %spec.select.i.i.i.i = tail call i64 @llvm.umin.i64(i64 %14, i64 %16)
  %19 = getelementptr inbounds nuw i8, ptr %.val, i64 40
  %20 = load ptr, ptr %19, align 8, !tbaa !796
  %21 = load ptr, ptr %20, align 8, !tbaa !92
  %22 = getelementptr inbounds nuw i8, ptr %.val, i64 48
  %23 = load ptr, ptr %22, align 8, !tbaa !797
  %24 = load ptr, ptr %23, align 8, !tbaa !92
  %25 = getelementptr inbounds nuw i8, ptr %.val, i64 56
  %26 = load ptr, ptr %25, align 8, !tbaa !798
  %27 = tail call noundef ptr @_ZN4pbrt12BVHAggregate14buildRecursiveERNS_11ThreadLocalIN4pstd3pmr21polymorphic_allocatorISt4byteEEEENS2_4spanINS_12BVHPrimitiveEEEPSt6atomicIiESE_RSt6vectorINS_9PrimitiveESaISG_EE(ptr noundef nonnull align 8 dereferenceable(48) %4, ptr noundef nonnull align 8 dereferenceable(112) %8, ptr %17, i64 %spec.select.i.i.i.i, ptr noundef %21, ptr noundef %24, ptr noundef nonnull align 8 dereferenceable(24) %26)
  %28 = load ptr, ptr %.val, align 8, !tbaa !799
  store ptr %27, ptr %28, align 8, !tbaa !123
  br label %"_ZSt10__invoke_rIvRZN4pbrt12BVHAggregate14buildRecursiveERNS0_11ThreadLocalIN4pstd3pmr21polymorphic_allocatorISt4byteEEEENS3_4spanINS0_12BVHPrimitiveEEEPSt6atomicIiESF_RSt6vectorINS0_9PrimitiveESaISH_EEE3$_0JlEENSt9enable_ifIX16is_invocable_r_vIT_T0_DpT1_EESO_E4typeEOSP_DpOSQ_.exit"

29:                                               ; preds = %2
  %30 = sub i64 %16, %14
  %31 = getelementptr inbounds nuw %"struct.pbrt::BVHPrimitive", ptr %17, i64 %14
  %32 = getelementptr inbounds nuw i8, ptr %.val, i64 40
  %33 = load ptr, ptr %32, align 8, !tbaa !796
  %34 = load ptr, ptr %33, align 8, !tbaa !92
  %35 = getelementptr inbounds nuw i8, ptr %.val, i64 48
  %36 = load ptr, ptr %35, align 8, !tbaa !797
  %37 = load ptr, ptr %36, align 8, !tbaa !92
  %38 = getelementptr inbounds nuw i8, ptr %.val, i64 56
  %39 = load ptr, ptr %38, align 8, !tbaa !798
  %40 = tail call noundef ptr @_ZN4pbrt12BVHAggregate14buildRecursiveERNS_11ThreadLocalIN4pstd3pmr21polymorphic_allocatorISt4byteEEEENS2_4spanINS_12BVHPrimitiveEEEPSt6atomicIiESE_RSt6vectorINS_9PrimitiveESaISG_EE(ptr noundef nonnull align 8 dereferenceable(48) %4, ptr noundef nonnull align 8 dereferenceable(112) %8, ptr %31, i64 %30, ptr noundef %34, ptr noundef %37, ptr noundef nonnull align 8 dereferenceable(24) %39)
  %41 = load ptr, ptr %.val, align 8, !tbaa !799
  %42 = getelementptr inbounds nuw i8, ptr %41, i64 8
  store ptr %40, ptr %42, align 8, !tbaa !123
  br label %"_ZSt10__invoke_rIvRZN4pbrt12BVHAggregate14buildRecursiveERNS0_11ThreadLocalIN4pstd3pmr21polymorphic_allocatorISt4byteEEEENS3_4spanINS0_12BVHPrimitiveEEEPSt6atomicIiESF_RSt6vectorINS0_9PrimitiveESaISH_EEE3$_0JlEENSt9enable_ifIX16is_invocable_r_vIT_T0_DpT1_EESO_E4typeEOSP_DpOSQ_.exit"

"_ZSt10__invoke_rIvRZN4pbrt12BVHAggregate14buildRecursiveERNS0_11ThreadLocalIN4pstd3pmr21polymorphic_allocatorISt4byteEEEENS3_4spanINS0_12BVHPrimitiveEEEPSt6atomicIiESF_RSt6vectorINS0_9PrimitiveESaISH_EEE3$_0JlEENSt9enable_ifIX16is_invocable_r_vIT_T0_DpT1_EESO_E4typeEOSP_DpOSQ_.exit": ; preds = %18, %29
  ret void
}